	.file	"b.c"
	.comm	a,4,4
	.section	.rodata
.LC0:
	.string	"%dTT\n"
	.text
	.globl	u
	.type	u, @function
u:
.LFB2:
	.cfi_startproc
	pushq	%rbp
	.cfi_def_cfa_offset 16
	.cfi_offset 6, -16
	movq	%rsp, %rbp
	.cfi_def_cfa_register 6
	movl	a(%rip), %eax
	addl	$1, %eax
	movl	%eax, a(%rip)
	movl	a(%rip), %eax
	movl	%eax, %esi
	movl	$.LC0, %edi
	movl	$0, %eax
	call	printf
	popq	%rbp
	.cfi_def_cfa 7, 8
	ret
	.cfi_endproc
.LFE2:
	.size	u, .-u
	.section	.rodata
.LC1:
	.string	"%d"
.LC2:
	.string	"%d\n"
	.text
	.globl	main
	.type	main, @function
main:
.LFB3:
	.cfi_startproc
	pushq	%rbp
	.cfi_def_cfa_offset 16
	.cfi_offset 6, -16
	movq	%rsp, %rbp
	.cfi_def_cfa_register 6
	subq	$16, %rsp
	movl	$u, %esi
	movl	$8, %edi
	call	signal
	movl	$10, -8(%rbp)
	movl	$10, -4(%rbp)
	leaq	-8(%rbp), %rax
	movq	%rax, %rsi
	movl	$.LC1, %edi
	movl	$0, %eax
	call	__isoc99_scanf
	movl	-8(%rbp), %ecx
	movl	$3, %eax
	cltd
	idivl	%ecx
	movl	%eax, -4(%rbp)
	movl	-4(%rbp), %eax
	movl	%eax, %esi
	movl	$.LC2, %edi
	movl	$0, %eax
	call	printf
	leave
	.cfi_def_cfa 7, 8
	ret
	.cfi_endproc
.LFE3:
	.size	main, .-main
	.ident	"GCC: (Ubuntu 4.8.2-19ubuntu1) 4.8.2"
	.section	.note.GNU-stack,"",@progbits
